target datalayout = "e-m:e-p270:32:32-p271:32:32-p272:64:64-i64:64-i128:128-f80:128-n8:16:32:64-S128"
target triple = "x86_64-pc-linux-gnu"

%struct.AVFormatContext = type { ptr, ptr, ptr, ptr, ptr, i32, i32, ptr, i32, ptr, i32, ptr, ptr, i64, i64, i64, i32, i32, i32, i64, i64, ptr, i32, i32, ptr, i32, i32, i32, i32, ptr, i64, i32, i32, %struct.AVIOInterruptCB, i32, i32, i32, i32, i64, i32, i32, i32, i32, i32, i32, i32, i32, i32, i32, i32, i32, i64, i32, i32, i32, i32, i32, ptr, ptr, ptr, ptr, i32, ptr, ptr, ptr, ptr, i32, ptr, ptr, i64, ptr, ptr, ptr, i64 }
%struct.AVIOInterruptCB = type { ptr, ptr }
%struct.ASFContext = type { ptr, i32, i32, [128 x %struct.ASFStream], [128 x ptr], i32, i64, i64, i64, i8, i32, i64, i64, i32, [65536 x i8], %struct.FFIOContext, i64, ptr, i32, i16, i32, i16, i64, i32, i32, i32 }
%struct.ASFStream = type { i32, i8, i16 }
%struct.FFIOContext = type { %struct.AVIOContext, ptr, i32, i32, i64, i64, i64, i64, i32, i32, i32, i64 }
%struct.AVIOContext = type { ptr, ptr, i32, ptr, ptr, ptr, ptr, ptr, ptr, i64, i32, i32, i32, i32, i32, i64, ptr, ptr, ptr, ptr, i32, i32, ptr, ptr, ptr, i32, ptr, i64, i64 }

@.str.21 = private unnamed_addr constant [30 x i8] c"Assertion %s failed at %s:%d\0A\00", align 1
@.str.23 = private unnamed_addr constant [21 x i8] c"libavformat/asfenc.c\00", align 1
@.str.25 = private unnamed_addr constant [57 x i8] c"asf->packet_timestamp_end >= asf->packet_timestamp_start\00", align 1
@.str.26 = private unnamed_addr constant [41 x i8] c"packet_hdr_size <= asf->packet_size_left\00", align 1
@.str.27 = private unnamed_addr constant [13 x i8] c"padsize >= 0\00", align 1

; Function Attrs: alwaysinline nounwind uwtable
define internal i64 @avio_tell(ptr noundef %0) #5 {
  %2 = alloca ptr, align 8
  store ptr %0, ptr %2, align 8, !tbaa !49
  %3 = load ptr, ptr %2, align 8, !tbaa !49
  %4 = call i64 @avio_seek(ptr noundef %3, i64 noundef 0, i32 noundef 1)
  ret i64 %4
}

; Function Attrs: nounwind uwtable
define internal i32 @put_payload_parsing_info(ptr noundef %0, i32 noundef %1, i32 noundef %2, i32 noundef %3, i32 noundef %4) #0 {
  %6 = alloca ptr, align 8
  %7 = alloca i32, align 4
  %8 = alloca i32, align 4
  %9 = alloca i32, align 4
  %10 = alloca i32, align 4
  %11 = alloca ptr, align 8
  %12 = alloca ptr, align 8
  %13 = alloca i32, align 4
  %14 = alloca i64, align 8
  %15 = alloca i32, align 4
  store ptr %0, ptr %6, align 8, !tbaa !4
  store i32 %1, ptr %7, align 4, !tbaa !41
  store i32 %2, ptr %8, align 4, !tbaa !41
  store i32 %3, ptr %9, align 4, !tbaa !41
  store i32 %4, ptr %10, align 4, !tbaa !41
  call void @llvm.lifetime.start.p0(i64 8, ptr %11) #9
  %16 = load ptr, ptr %6, align 8, !tbaa !4
  %17 = getelementptr inbounds nuw %struct.AVFormatContext, ptr %16, i32 0, i32 3
  %18 = load ptr, ptr %17, align 8, !tbaa !9
  store ptr %18, ptr %11, align 8, !tbaa !26
  call void @llvm.lifetime.start.p0(i64 8, ptr %12) #9
  %19 = load ptr, ptr %6, align 8, !tbaa !4
  %20 = getelementptr inbounds nuw %struct.AVFormatContext, ptr %19, i32 0, i32 4
  %21 = load ptr, ptr %20, align 8, !tbaa !48
  store ptr %21, ptr %12, align 8, !tbaa !49
  call void @llvm.lifetime.start.p0(i64 4, ptr %13) #9
  call void @llvm.lifetime.start.p0(i64 8, ptr %14) #9
  %22 = load ptr, ptr %12, align 8, !tbaa !49
  %23 = call i64 @avio_tell(ptr noundef %22)
  store i64 %23, ptr %14, align 8, !tbaa !55
  call void @llvm.lifetime.start.p0(i64 4, ptr %15) #9
  store i32 0, ptr %15, align 4, !tbaa !41
  %24 = load i32, ptr %10, align 4, !tbaa !41
  %25 = sub nsw i32 %24, 11
  store i32 %25, ptr %10, align 4, !tbaa !41
  %26 = load ptr, ptr %11, align 8, !tbaa !26
  %27 = getelementptr inbounds nuw %struct.ASFContext, ptr %26, i32 0, i32 9
  %28 = load i8, ptr %27, align 8, !tbaa !143
  %29 = icmp ne i8 %28, 0
  br i1 %29, label %30, label %33

30:                                               ; preds = %5
  %31 = load i32, ptr %10, align 4, !tbaa !41
  %32 = add nsw i32 %31, -1
  store i32 %32, ptr %10, align 4, !tbaa !41
  br label %33

33:                                               ; preds = %30, %5
  br label %34

34:                                               ; preds = %33
  %35 = load i32, ptr %10, align 4, !tbaa !41
  %36 = icmp sge i32 %35, 0
  br i1 %36, label %38, label %37

37:                                               ; preds = %34
  call void (ptr, i32, ptr, ...) @av_log(ptr noundef null, i32 noundef 0, ptr noundef @.str.21, ptr noundef @.str.27, ptr noundef @.str.23, i32 noundef 808)
  call void @abort() #10
  unreachable

38:                                               ; preds = %34
  br label %39

39:                                               ; preds = %38
  br label %40

40:                                               ; preds = %39
  %41 = load ptr, ptr %12, align 8, !tbaa !49
  call void @avio_w8(ptr noundef %41, i32 noundef 130)
  %42 = load ptr, ptr %12, align 8, !tbaa !49
  call void @ffio_fill(ptr noundef %42, i32 noundef 0, i64 noundef 2)
  %43 = load ptr, ptr %11, align 8, !tbaa !26
  %44 = getelementptr inbounds nuw %struct.ASFContext, ptr %43, i32 0, i32 9
  %45 = load i8, ptr %44, align 8, !tbaa !143
  %46 = icmp ne i8 %45, 0
  br i1 %46, label %47, label %50

47:                                               ; preds = %40
  %48 = load i32, ptr %15, align 4, !tbaa !41
  %49 = or i32 %48, 1
  store i32 %49, ptr %15, align 4, !tbaa !41
  br label %50

50:                                               ; preds = %47, %40
  %51 = load i32, ptr %10, align 4, !tbaa !41
  %52 = icmp sgt i32 %51, 0
  br i1 %52, label %53, label %63

53:                                               ; preds = %50
  %54 = load i32, ptr %10, align 4, !tbaa !41
  %55 = icmp slt i32 %54, 256
  br i1 %55, label %56, label %59

56:                                               ; preds = %53
  %57 = load i32, ptr %15, align 4, !tbaa !41
  %58 = or i32 %57, 8
  store i32 %58, ptr %15, align 4, !tbaa !41
  br label %62

59:                                               ; preds = %53
  %60 = load i32, ptr %15, align 4, !tbaa !41
  %61 = or i32 %60, 16
  store i32 %61, ptr %15, align 4, !tbaa !41
  br label %62

62:                                               ; preds = %59, %56
  br label %63

63:                                               ; preds = %62, %50
  %64 = load ptr, ptr %12, align 8, !tbaa !49
  %65 = load i32, ptr %15, align 4, !tbaa !41
  call void @avio_w8(ptr noundef %64, i32 noundef %65)
  %66 = load ptr, ptr %12, align 8, !tbaa !49
  call void @avio_w8(ptr noundef %66, i32 noundef 93)
  %67 = load i32, ptr %15, align 4, !tbaa !41
  %68 = and i32 %67, 16
  %69 = icmp ne i32 %68, 0
  br i1 %69, label %70, label %74

70:                                               ; preds = %63
  %71 = load ptr, ptr %12, align 8, !tbaa !49
  %72 = load i32, ptr %10, align 4, !tbaa !41
  %73 = sub nsw i32 %72, 2
  call void @avio_wl16(ptr noundef %71, i32 noundef %73)
  br label %74

74:                                               ; preds = %70, %63
  %75 = load i32, ptr %15, align 4, !tbaa !41
  %76 = and i32 %75, 8
  %77 = icmp ne i32 %76, 0
  br i1 %77, label %78, label %82

78:                                               ; preds = %74
  %79 = load ptr, ptr %12, align 8, !tbaa !49
  %80 = load i32, ptr %10, align 4, !tbaa !41
  %81 = sub nsw i32 %80, 1
  call void @avio_w8(ptr noundef %79, i32 noundef %81)
  br label %82

82:                                               ; preds = %78, %74
  %83 = load ptr, ptr %12, align 8, !tbaa !49
  %84 = load i32, ptr %7, align 4, !tbaa !41
  call void @avio_wl32(ptr noundef %83, i32 noundef %84)
  %85 = load ptr, ptr %12, align 8, !tbaa !49
  %86 = load i32, ptr %8, align 4, !tbaa !41
  call void @avio_wl16(ptr noundef %85, i32 noundef %86)
  %87 = load ptr, ptr %11, align 8, !tbaa !26
  %88 = getelementptr inbounds nuw %struct.ASFContext, ptr %87, i32 0, i32 9
  %89 = load i8, ptr %88, align 8, !tbaa !143
  %90 = icmp ne i8 %89, 0
  br i1 %90, label %91, label %95

91:                                               ; preds = %82
  %92 = load ptr, ptr %12, align 8, !tbaa !49
  %93 = load i32, ptr %9, align 4, !tbaa !41
  %94 = or i32 %93, 128
  call void @avio_w8(ptr noundef %92, i32 noundef %94)
  br label %95

95:                                               ; preds = %91, %82
  %96 = load ptr, ptr %12, align 8, !tbaa !49
  %97 = call i64 @avio_tell(ptr noundef %96)
  %98 = load i64, ptr %14, align 8, !tbaa !55
  %99 = sub nsw i64 %97, %98
  %100 = trunc i64 %99 to i32
  store i32 %100, ptr %13, align 4, !tbaa !41
  %101 = load i32, ptr %13, align 4, !tbaa !41
  call void @llvm.lifetime.end.p0(i64 4, ptr %15) #9
  call void @llvm.lifetime.end.p0(i64 8, ptr %14) #9
  call void @llvm.lifetime.end.p0(i64 4, ptr %13) #9
  call void @llvm.lifetime.end.p0(i64 8, ptr %12) #9
  call void @llvm.lifetime.end.p0(i64 8, ptr %11) #9
  ret i32 %101
}

; Function Attrs: nounwind uwtable
define internal void @put_chunk(ptr noundef %0, i32 noundef %1, i32 noundef %2, i32 noundef %3) #0 {
  %5 = alloca ptr, align 8
  %6 = alloca i32, align 4
  %7 = alloca i32, align 4
  %8 = alloca i32, align 4
  %9 = alloca ptr, align 8
  %10 = alloca ptr, align 8
  %11 = alloca i32, align 4
  store ptr %0, ptr %5, align 8, !tbaa !4
  store i32 %1, ptr %6, align 4, !tbaa !41
  store i32 %2, ptr %7, align 4, !tbaa !41
  store i32 %3, ptr %8, align 4, !tbaa !41
  call void @llvm.lifetime.start.p0(i64 8, ptr %9) #9
  %12 = load ptr, ptr %5, align 8, !tbaa !4
  %13 = getelementptr inbounds nuw %struct.AVFormatContext, ptr %12, i32 0, i32 3
  %14 = load ptr, ptr %13, align 8, !tbaa !9
  store ptr %14, ptr %9, align 8, !tbaa !26
  call void @llvm.lifetime.start.p0(i64 8, ptr %10) #9
  %15 = load ptr, ptr %5, align 8, !tbaa !4
  %16 = getelementptr inbounds nuw %struct.AVFormatContext, ptr %15, i32 0, i32 4
  %17 = load ptr, ptr %16, align 8, !tbaa !48
  store ptr %17, ptr %10, align 8, !tbaa !49
  call void @llvm.lifetime.start.p0(i64 4, ptr %11) #9
  %18 = load i32, ptr %7, align 4, !tbaa !41
  %19 = add nsw i32 %18, 8
  store i32 %19, ptr %11, align 4, !tbaa !41
  %20 = load ptr, ptr %10, align 8, !tbaa !49
  %21 = load i32, ptr %6, align 4, !tbaa !41
  call void @avio_wl16(ptr noundef %20, i32 noundef %21)
  %22 = load ptr, ptr %10, align 8, !tbaa !49
  %23 = load i32, ptr %11, align 4, !tbaa !41
  call void @avio_wl16(ptr noundef %22, i32 noundef %23)
  %24 = load ptr, ptr %10, align 8, !tbaa !49
  %25 = load ptr, ptr %9, align 8, !tbaa !26
  %26 = getelementptr inbounds nuw %struct.ASFContext, ptr %25, i32 0, i32 1
  %27 = load i32, ptr %26, align 8, !tbaa !129
  call void @avio_wl32(ptr noundef %24, i32 noundef %27)
  %28 = load ptr, ptr %10, align 8, !tbaa !49
  %29 = load i32, ptr %8, align 4, !tbaa !41
  call void @avio_wl16(ptr noundef %28, i32 noundef %29)
  %30 = load ptr, ptr %10, align 8, !tbaa !49
  %31 = load i32, ptr %11, align 4, !tbaa !41
  call void @avio_wl16(ptr noundef %30, i32 noundef %31)
  %32 = load ptr, ptr %9, align 8, !tbaa !26
  %33 = getelementptr inbounds nuw %struct.ASFContext, ptr %32, i32 0, i32 1
  %34 = load i32, ptr %33, align 8, !tbaa !129
  %35 = add i32 %34, 1
  store i32 %35, ptr %33, align 8, !tbaa !129
  call void @llvm.lifetime.end.p0(i64 4, ptr %11) #9
  call void @llvm.lifetime.end.p0(i64 8, ptr %10) #9
  call void @llvm.lifetime.end.p0(i64 8, ptr %9) #9
  ret void
}

; Function Attrs: nounwind uwtable
define internal void @flush_packet(ptr noundef %0) #0 {
  %2 = alloca ptr, align 8
  %3 = alloca ptr, align 8
  %4 = alloca i32, align 4
  %5 = alloca i32, align 4
  store ptr %0, ptr %2, align 8, !tbaa !4
  call void @llvm.lifetime.start.p0(i64 8, ptr %3) #9
  %6 = load ptr, ptr %2, align 8, !tbaa !4
  %7 = getelementptr inbounds nuw %struct.AVFormatContext, ptr %6, i32 0, i32 3
  %8 = load ptr, ptr %7, align 8, !tbaa !9
  store ptr %8, ptr %3, align 8, !tbaa !26
  call void @llvm.lifetime.start.p0(i64 4, ptr %4) #9
  call void @llvm.lifetime.start.p0(i64 4, ptr %5) #9
  br label %9

9:                                                ; preds = %1
  %10 = load ptr, ptr %3, align 8, !tbaa !26
  %11 = getelementptr inbounds nuw %struct.ASFContext, ptr %10, i32 0, i32 12
  %12 = load i64, ptr %11, align 8, !tbaa !44
  %13 = load ptr, ptr %3, align 8, !tbaa !26
  %14 = getelementptr inbounds nuw %struct.ASFContext, ptr %13, i32 0, i32 11
  %15 = load i64, ptr %14, align 8, !tbaa !43
  %16 = icmp sge i64 %12, %15
  br i1 %16, label %18, label %17

17:                                               ; preds = %9
  call void (ptr, i32, ptr, ...) @av_log(ptr noundef null, i32 noundef 0, ptr noundef @.str.21, ptr noundef @.str.25, ptr noundef @.str.23, i32 noundef 846)
  call void @abort() #10
  unreachable

18:                                               ; preds = %9
  br label %19

19:                                               ; preds = %18
  br label %20

20:                                               ; preds = %19
  %21 = load ptr, ptr %3, align 8, !tbaa !26
  %22 = getelementptr inbounds nuw %struct.ASFContext, ptr %21, i32 0, i32 2
  %23 = load i32, ptr %22, align 4, !tbaa !75
  %24 = icmp ne i32 %23, 0
  br i1 %24, label %25, label %30

25:                                               ; preds = %20
  %26 = load ptr, ptr %2, align 8, !tbaa !4
  %27 = load ptr, ptr %2, align 8, !tbaa !4
  %28 = getelementptr inbounds nuw %struct.AVFormatContext, ptr %27, i32 0, i32 16
  %29 = load i32, ptr %28, align 8, !tbaa !34
  call void @put_chunk(ptr noundef %26, i32 noundef 17444, i32 noundef %29, i32 noundef 0)
  br label %30

30:                                               ; preds = %25, %20
  %31 = load ptr, ptr %2, align 8, !tbaa !4
  %32 = load ptr, ptr %3, align 8, !tbaa !26
  %33 = getelementptr inbounds nuw %struct.ASFContext, ptr %32, i32 0, i32 11
  %34 = load i64, ptr %33, align 8, !tbaa !43
  %35 = trunc i64 %34 to i32
  %36 = load ptr, ptr %3, align 8, !tbaa !26
  %37 = getelementptr inbounds nuw %struct.ASFContext, ptr %36, i32 0, i32 12
  %38 = load i64, ptr %37, align 8, !tbaa !44
  %39 = load ptr, ptr %3, align 8, !tbaa !26
  %40 = getelementptr inbounds nuw %struct.ASFContext, ptr %39, i32 0, i32 11
  %41 = load i64, ptr %40, align 8, !tbaa !43
  %42 = sub nsw i64 %38, %41
  %43 = trunc i64 %42 to i32
  %44 = load ptr, ptr %3, align 8, !tbaa !26
  %45 = getelementptr inbounds nuw %struct.ASFContext, ptr %44, i32 0, i32 13
  %46 = load i32, ptr %45, align 8, !tbaa !42
  %47 = load ptr, ptr %3, align 8, !tbaa !26
  %48 = getelementptr inbounds nuw %struct.ASFContext, ptr %47, i32 0, i32 10
  %49 = load i32, ptr %48, align 4, !tbaa !144
  %50 = call i32 @put_payload_parsing_info(ptr noundef %31, i32 noundef %35, i32 noundef %43, i32 noundef %46, i32 noundef %49)
  store i32 %50, ptr %4, align 4, !tbaa !41
  %51 = load ptr, ptr %3, align 8, !tbaa !26
  %52 = getelementptr inbounds nuw %struct.ASFContext, ptr %51, i32 0, i32 25
  %53 = load i32, ptr %52, align 8, !tbaa !28
  %54 = load ptr, ptr %3, align 8, !tbaa !26
  %55 = getelementptr inbounds nuw %struct.ASFContext, ptr %54, i32 0, i32 10
  %56 = load i32, ptr %55, align 4, !tbaa !144
  %57 = sub nsw i32 %53, %56
  store i32 %57, ptr %5, align 4, !tbaa !41
  br label %58

58:                                               ; preds = %30
  %59 = load i32, ptr %4, align 4, !tbaa !41
  %60 = load ptr, ptr %3, align 8, !tbaa !26
  %61 = getelementptr inbounds nuw %struct.ASFContext, ptr %60, i32 0, i32 10
  %62 = load i32, ptr %61, align 4, !tbaa !144
  %63 = icmp sle i32 %59, %62
  br i1 %63, label %65, label %64

64:                                               ; preds = %58
  call void (ptr, i32, ptr, ...) @av_log(ptr noundef null, i32 noundef 0, ptr noundef @.str.21, ptr noundef @.str.26, ptr noundef @.str.23, i32 noundef 858)
  call void @abort() #10
  unreachable

65:                                               ; preds = %58
  br label %66

66:                                               ; preds = %65
  br label %67

67:                                               ; preds = %66
  %68 = load ptr, ptr %3, align 8, !tbaa !26
  %69 = getelementptr inbounds nuw %struct.ASFContext, ptr %68, i32 0, i32 14
  %70 = getelementptr inbounds [65536 x i8], ptr %69, i64 0, i64 0
  %71 = load i32, ptr %5, align 4, !tbaa !41
  %72 = sext i32 %71 to i64
  %73 = getelementptr inbounds i8, ptr %70, i64 %72
  %74 = load ptr, ptr %3, align 8, !tbaa !26
  %75 = getelementptr inbounds nuw %struct.ASFContext, ptr %74, i32 0, i32 10
  %76 = load i32, ptr %75, align 4, !tbaa !144
  %77 = sext i32 %76 to i64
  call void @llvm.memset.p0.i64(ptr align 1 %73, i8 0, i64 %77, i1 false)
  %78 = load ptr, ptr %2, align 8, !tbaa !4
  %79 = getelementptr inbounds nuw %struct.AVFormatContext, ptr %78, i32 0, i32 4
  %80 = load ptr, ptr %79, align 8, !tbaa !48
  %81 = load ptr, ptr %3, align 8, !tbaa !26
  %82 = getelementptr inbounds nuw %struct.ASFContext, ptr %81, i32 0, i32 14
  %83 = getelementptr inbounds [65536 x i8], ptr %82, i64 0, i64 0
  %84 = load ptr, ptr %2, align 8, !tbaa !4
  %85 = getelementptr inbounds nuw %struct.AVFormatContext, ptr %84, i32 0, i32 16
  %86 = load i32, ptr %85, align 8, !tbaa !34
  %87 = load i32, ptr %4, align 4, !tbaa !41
  %88 = sub i32 %86, %87
  call void @avio_write(ptr noundef %80, ptr noundef %83, i32 noundef %88)
  %89 = load ptr, ptr %2, align 8, !tbaa !4
  %90 = getelementptr inbounds nuw %struct.AVFormatContext, ptr %89, i32 0, i32 4
  %91 = load ptr, ptr %90, align 8, !tbaa !48
  call void @avio_write_marker(ptr noundef %91, i64 noundef -9223372036854775808, i32 noundef 5)
  %92 = load ptr, ptr %3, align 8, !tbaa !26
  %93 = getelementptr inbounds nuw %struct.ASFContext, ptr %92, i32 0, i32 7
  %94 = load i64, ptr %93, align 8, !tbaa !36
  %95 = add i64 %94, 1
  store i64 %95, ptr %93, align 8, !tbaa !36
  %96 = load ptr, ptr %3, align 8, !tbaa !26
  %97 = getelementptr inbounds nuw %struct.ASFContext, ptr %96, i32 0, i32 13
  store i32 0, ptr %97, align 8, !tbaa !42
  %98 = load ptr, ptr %3, align 8, !tbaa !26
  %99 = getelementptr inbounds nuw %struct.ASFContext, ptr %98, i32 0, i32 11
  store i64 -1, ptr %99, align 8, !tbaa !43
  %100 = load ptr, ptr %3, align 8, !tbaa !26
  %101 = getelementptr inbounds nuw %struct.ASFContext, ptr %100, i32 0, i32 12
  store i64 -1, ptr %101, align 8, !tbaa !44
  %102 = load ptr, ptr %3, align 8, !tbaa !26
  %103 = getelementptr inbounds nuw %struct.ASFContext, ptr %102, i32 0, i32 15
  %104 = load ptr, ptr %3, align 8, !tbaa !26
  %105 = getelementptr inbounds nuw %struct.ASFContext, ptr %104, i32 0, i32 14
  %106 = getelementptr inbounds [65536 x i8], ptr %105, i64 0, i64 0
  %107 = load ptr, ptr %2, align 8, !tbaa !4
  %108 = getelementptr inbounds nuw %struct.AVFormatContext, ptr %107, i32 0, i32 16
  %109 = load i32, ptr %108, align 8, !tbaa !34
  call void @ffio_init_write_context(ptr noundef %103, ptr noundef %106, i32 noundef %109)
  call void @llvm.lifetime.end.p0(i64 4, ptr %5) #9
  call void @llvm.lifetime.end.p0(i64 4, ptr %4) #9
  call void @llvm.lifetime.end.p0(i64 8, ptr %3) #9
  ret void
}