; Function Attrs: nounwind uwtable
define internal fastcc void @flush_packet(ptr noundef readonly captures(none) %0) unnamed_addr #0 {
  %2 = getelementptr inbounds nuw i8, ptr %0, i64 24
  %3 = load ptr, ptr %2, align 8, !tbaa !4
  %4 = getelementptr inbounds nuw i8, ptr %3, i64 2112
  %5 = load i64, ptr %4, align 8, !tbaa !67
  %6 = getelementptr inbounds nuw i8, ptr %3, i64 2104
  %7 = load i64, ptr %6, align 8, !tbaa !61
  %.not = icmp slt i64 %5, %7
  br i1 %.not, label %8, label %9

8:                                                ; preds = %1
  tail call void (ptr, i32, ptr, ...) @av_log(ptr noundef null, i32 noundef 0, ptr noundef nonnull @.str.21, ptr noundef nonnull @.str.25, ptr noundef nonnull @.str.23, i32 noundef 846) #8
  tail call void @abort() #9
  unreachable

9:                                                ; preds = %1
  %10 = getelementptr inbounds nuw i8, ptr %3, i64 12
  %11 = load i32, ptr %10, align 4, !tbaa !70
  %.not31 = icmp eq i32 %11, 0
  br i1 %.not31, label %21, label %12

12:                                               ; preds = %9
  %13 = getelementptr inbounds nuw i8, ptr %0, i64 120
  %14 = load i32, ptr %13, align 8, !tbaa !30
  %15 = getelementptr i8, ptr %0, i64 32
  %.val33 = load ptr, ptr %15, align 8, !tbaa !39
  %16 = add nsw i32 %14, 8
  tail call void @avio_wl16(ptr noundef %.val33, i32 noundef 17444) #8
  tail call void @avio_wl16(ptr noundef %.val33, i32 noundef %16) #8
  %17 = getelementptr inbounds nuw i8, ptr %3, i64 8
  %18 = load i32, ptr %17, align 8, !tbaa !86
  tail call void @avio_wl32(ptr noundef %.val33, i32 noundef %18) #8
  tail call void @avio_wl16(ptr noundef %.val33, i32 noundef 0) #8
  tail call void @avio_wl16(ptr noundef %.val33, i32 noundef %16) #8
  %19 = load i32, ptr %17, align 8, !tbaa !86
  %20 = add i32 %19, 1
  store i32 %20, ptr %17, align 8, !tbaa !86
  %.pre = load i64, ptr %6, align 8, !tbaa !61
  %.pre36 = load i64, ptr %4, align 8, !tbaa !67
  %.val34.pre = load ptr, ptr %2, align 8, !tbaa !4
  br label %21

21:                                               ; preds = %12, %9
  %.val34 = phi ptr [ %.val34.pre, %12 ], [ %3, %9 ]
  %22 = phi i64 [ %.pre36, %12 ], [ %5, %9 ]
  %23 = phi i64 [ %.pre, %12 ], [ %7, %9 ]
  %24 = trunc i64 %23 to i32
  %25 = sub nsw i64 %22, %23
  %26 = trunc i64 %25 to i32
  %27 = getelementptr inbounds nuw i8, ptr %3, i64 2120
  %28 = load i32, ptr %27, align 8, !tbaa !37
  %29 = getelementptr inbounds nuw i8, ptr %3, i64 2100
  %30 = load i32, ptr %29, align 4, !tbaa !62
  %31 = getelementptr i8, ptr %0, i64 32
  %.val35 = load ptr, ptr %31, align 8, !tbaa !39
  %32 = tail call i64 @avio_seek(ptr noundef %.val35, i64 noundef 0, i32 noundef 1) #8
  %33 = getelementptr inbounds nuw i8, ptr %.val34, i64 2096
  %34 = load i8, ptr %33, align 8, !tbaa !63
  %.not.i = icmp eq i8 %34, 0
  %spec.select.v.i = select i1 %.not.i, i32 -11, i32 -12
  %spec.select.i = add nsw i32 %spec.select.v.i, %30
  %35 = icmp sgt i32 %spec.select.i, -1
  br i1 %35, label %37, label %36

36:                                               ; preds = %21
  tail call void (ptr, i32, ptr, ...) @av_log(ptr noundef null, i32 noundef 0, ptr noundef nonnull @.str.21, ptr noundef nonnull @.str.27, ptr noundef nonnull @.str.23, i32 noundef 808) #8
  tail call void @abort() #9
  unreachable

37:                                               ; preds = %21
  tail call void @avio_w8(ptr noundef %.val35, i32 noundef 130) #8
  tail call void @ffio_fill(ptr noundef %.val35, i32 noundef 0, i64 noundef 2) #8
  %38 = load i8, ptr %33, align 8, !tbaa !63
  %.not34.i = icmp ne i8 %38, 0
  %spec.select39.i = zext i1 %.not34.i to i32
  %.not35.i = icmp eq i32 %spec.select.i, 0
  br i1 %.not35.i, label %45, label %39

39:                                               ; preds = %37
  %40 = icmp samesign ult i32 %spec.select.i, 256
  br i1 %40, label %41, label %43

41:                                               ; preds = %39
  %42 = or disjoint i32 %spec.select39.i, 8
  br label %45

43:                                               ; preds = %39
  %44 = or disjoint i32 %spec.select39.i, 16
  br label %45

45:                                               ; preds = %43, %41, %37
  %.1.i = phi i32 [ %42, %41 ], [ %44, %43 ], [ %spec.select39.i, %37 ]
  tail call void @avio_w8(ptr noundef %.val35, i32 noundef %.1.i) #8
  tail call void @avio_w8(ptr noundef %.val35, i32 noundef 93) #8
  %46 = and i32 %.1.i, 16
  %.not36.i = icmp eq i32 %46, 0
  br i1 %.not36.i, label %49, label %47

47:                                               ; preds = %45
  %48 = add nsw i32 %spec.select.i, -2
  tail call void @avio_wl16(ptr noundef %.val35, i32 noundef %48) #8
  br label %49

49:                                               ; preds = %47, %45
  %50 = and i32 %.1.i, 8
  %.not37.i = icmp eq i32 %50, 0
  br i1 %.not37.i, label %53, label %51

51:                                               ; preds = %49
  %52 = add nsw i32 %spec.select.i, -1
  tail call void @avio_w8(ptr noundef %.val35, i32 noundef %52) #8
  br label %53

53:                                               ; preds = %51, %49
  tail call void @avio_wl32(ptr noundef %.val35, i32 noundef %24) #8
  tail call void @avio_wl16(ptr noundef %.val35, i32 noundef %26) #8
  %54 = load i8, ptr %33, align 8, !tbaa !63
  %.not38.i = icmp eq i8 %54, 0
  br i1 %.not38.i, label %put_payload_parsing_info.exit, label %55

55:                                               ; preds = %53
  %56 = or i32 %28, 128
  tail call void @avio_w8(ptr noundef %.val35, i32 noundef %56) #8
  br label %put_payload_parsing_info.exit

put_payload_parsing_info.exit:                    ; preds = %53, %55
  %57 = tail call i64 @avio_seek(ptr noundef %.val35, i64 noundef 0, i32 noundef 1) #8
  %58 = sub nsw i64 %57, %32
  %59 = trunc i64 %58 to i32
  %60 = load i32, ptr %29, align 4, !tbaa !62
  %.not32 = icmp slt i32 %60, %59
  br i1 %.not32, label %61, label %62

61:                                               ; preds = %put_payload_parsing_info.exit
  tail call void (ptr, i32, ptr, ...) @av_log(ptr noundef null, i32 noundef 0, ptr noundef nonnull @.str.21, ptr noundef nonnull @.str.26, ptr noundef nonnull @.str.23, i32 noundef 858) #8
  tail call void @abort() #9
  unreachable

62:                                               ; preds = %put_payload_parsing_info.exit
  %63 = getelementptr inbounds nuw i8, ptr %3, i64 67992
  %64 = load i32, ptr %63, align 8, !tbaa !24
  %65 = sub nsw i32 %64, %60
  %66 = getelementptr inbounds nuw i8, ptr %3, i64 2124
  %67 = sext i32 %65 to i64
  %68 = getelementptr inbounds i8, ptr %66, i64 %67
  %69 = sext i32 %60 to i64
  tail call void @llvm.memset.p0.i64(ptr nonnull align 1 %68, i8 0, i64 %69, i1 false)
  %70 = load ptr, ptr %31, align 8, !tbaa !39
  %71 = getelementptr inbounds nuw i8, ptr %0, i64 120
  %72 = load i32, ptr %71, align 8, !tbaa !30
  %73 = sub i32 %72, %59
  tail call void @avio_write(ptr noundef %70, ptr noundef nonnull %66, i32 noundef %73) #8
  %74 = load ptr, ptr %31, align 8, !tbaa !39
  tail call void @avio_write_marker(ptr noundef %74, i64 noundef -9223372036854775808, i32 noundef 5) #8
  %75 = getelementptr inbounds nuw i8, ptr %3, i64 2080
  %76 = load i64, ptr %75, align 8, !tbaa !32
  %77 = add i64 %76, 1
  store i64 %77, ptr %75, align 8, !tbaa !32
  store i32 0, ptr %27, align 8, !tbaa !37
  %78 = getelementptr inbounds nuw i8, ptr %3, i64 67664
  tail call void @llvm.memset.p0.i64(ptr noundef nonnull align 8 dereferenceable(16) %6, i8 -1, i64 16, i1 false)
  %79 = load i32, ptr %71, align 8, !tbaa !30
  tail call void @ffio_init_write_context(ptr noundef nonnull %78, ptr noundef nonnull %66, i32 noundef %79) #8
  ret void
}